; Function Attrs: mustprogress nofree norecurse nosync nounwind willreturn memory(argmem: read) uwtable
define noundef i32 @_ZN12ByteViewText11offsetCharsEb(ptr nocapture noundef nonnull readonly align 8 dereferenceable(328) %0, i1 noundef zeroext %1) local_unnamed_addr #10 align 2 {
  %3 = select i1 %1, i32 2, i32 0
  %4 = getelementptr inbounds i8, ptr %0, i64 72
  %5 = load i64, ptr %4, align 8
  %6 = icmp sgt i64 %5, 65535
  %.0.v = select i1 %6, i32 8, i32 4
  %.0 = or disjoint i32 %.0.v, %3
  ret i32 %.0
}